target datalayout = "e-m:e-p270:32:32-p271:32:32-p272:64:64-i64:64-i128:128-f80:128-n8:16:32:64-S128"
target triple = "x86_64-pc-linux-gnu"

%struct.AVCodecTag = type { i32, i32 }
%struct.AVFormatContext = type { ptr, ptr, ptr, ptr, ptr, i32, i32, ptr, i32, ptr, i32, ptr, ptr, i64, i64, i64, i32, i32, i32, i64, i64, ptr, i32, i32, ptr, i32, i32, i32, i32, ptr, i64, i32, i32, %struct.AVIOInterruptCB, i32, i32, i32, i32, i64, i32, i32, i32, i32, i32, i32, i32, i32, i32, i32, i32, i32, i64, i32, i32, i32, i32, i32, ptr, ptr, ptr, ptr, i32, ptr, ptr, ptr, ptr, i32, ptr, ptr, i64, ptr, ptr, ptr, i64 }
%struct.AVIOInterruptCB = type { ptr, ptr }
%struct.AVStream = type { ptr, i32, i32, ptr, ptr, %struct.AVRational, i64, i64, i64, i32, i32, %struct.AVRational, ptr, %struct.AVRational, %struct.AVPacket, i32, %struct.AVRational, i32 }
%struct.AVPacket = type { ptr, i64, i64, ptr, i32, i32, i32, ptr, i32, i64, i64, ptr, ptr, %struct.AVRational }
%struct.AVRational = type { i32, i32 }
%struct.AVCodecParameters = type { i32, i32, i32, ptr, i32, ptr, i32, i32, i64, i32, i32, i32, i32, i32, i32, %struct.AVRational, %struct.AVRational, i32, i32, i32, i32, i32, i32, i32, %struct.AVChannelLayout, i32, i32, i32, i32, i32, i32 }
%struct.AVChannelLayout = type { i32, i32, %union.anon, ptr }
%union.anon = type { i64 }

@.str.2 = private unnamed_addr constant [11 x i8] c"%d streams\00", align 1
@ff_codec_bmp_tags = external constant [0 x %struct.AVCodecTag], align 4
@ff_codec_wav_tags = external constant [0 x %struct.AVCodecTag], align 4
@.str.3 = private unnamed_addr constant [6 x i8] c"id %d\00", align 1

; Function Attrs: alwaysinline nounwind uwtable
define internal i64 @avio_tell(ptr noundef %0) #3 {
  %2 = alloca ptr, align 8
  store ptr %0, ptr %2, align 8, !tbaa !62
  %3 = load ptr, ptr %2, align 8, !tbaa !62
  %4 = call i64 @avio_seek(ptr noundef %3, i64 noundef 0, i32 noundef 1)
  ret i64 %4
}

; Function Attrs: nounwind uwtable
define internal i32 @lvf_read_header(ptr noundef %0) #0 {
  %2 = alloca i32, align 4
  %3 = alloca ptr, align 8
  %4 = alloca ptr, align 8
  %5 = alloca i64, align 8
  %6 = alloca i32, align 4
  %7 = alloca i32, align 4
  %8 = alloca i32, align 4
  %9 = alloca i32, align 4
  store ptr %0, ptr %3, align 8, !tbaa !14
  call void @llvm.lifetime.start.p0(i64 8, ptr %4) #4
  call void @llvm.lifetime.start.p0(i64 8, ptr %5) #4
  call void @llvm.lifetime.start.p0(i64 4, ptr %6) #4
  call void @llvm.lifetime.start.p0(i64 4, ptr %7) #4
  call void @llvm.lifetime.start.p0(i64 4, ptr %8) #4
  %10 = load ptr, ptr %3, align 8, !tbaa !14
  %11 = getelementptr inbounds nuw %struct.AVFormatContext, ptr %10, i32 0, i32 4
  %12 = load ptr, ptr %11, align 8, !tbaa !16
  %13 = call i64 @avio_skip(ptr noundef %12, i64 noundef 16)
  %14 = load ptr, ptr %3, align 8, !tbaa !14
  %15 = getelementptr inbounds nuw %struct.AVFormatContext, ptr %14, i32 0, i32 4
  %16 = load ptr, ptr %15, align 8, !tbaa !16
  %17 = call i32 @avio_rl32(ptr noundef %16)
  store i32 %17, ptr %7, align 4, !tbaa !31
  %18 = load i32, ptr %7, align 4, !tbaa !31
  %19 = icmp ne i32 %18, 0
  br i1 %19, label %21, label %20

20:                                               ; preds = %1
  store i32 -1094995529, ptr %2, align 4
  store i32 1, ptr %9, align 4
  br label %184

21:                                               ; preds = %1
  %22 = load i32, ptr %7, align 4, !tbaa !31
  %23 = icmp ugt i32 %22, 2
  br i1 %23, label %24, label %27

24:                                               ; preds = %21
  %25 = load ptr, ptr %3, align 8, !tbaa !14
  %26 = load i32, ptr %7, align 4, !tbaa !31
  call void (ptr, ptr, ...) @avpriv_request_sample(ptr noundef %25, ptr noundef @.str.2, i32 noundef %26)
  store i32 -1163346256, ptr %2, align 4
  store i32 1, ptr %9, align 4
  br label %184

27:                                               ; preds = %21
  %28 = load ptr, ptr %3, align 8, !tbaa !14
  %29 = getelementptr inbounds nuw %struct.AVFormatContext, ptr %28, i32 0, i32 4
  %30 = load ptr, ptr %29, align 8, !tbaa !16
  %31 = call i64 @avio_skip(ptr noundef %30, i64 noundef 1012)
  br label %32

32:                                               ; preds = %177, %27
  %33 = load ptr, ptr %3, align 8, !tbaa !14
  %34 = getelementptr inbounds nuw %struct.AVFormatContext, ptr %33, i32 0, i32 4
  %35 = load ptr, ptr %34, align 8, !tbaa !16
  %36 = call i32 @avio_feof(ptr noundef %35)
  %37 = icmp ne i32 %36, 0
  %38 = xor i1 %37, true
  br i1 %38, label %39, label %183

39:                                               ; preds = %32
  %40 = load ptr, ptr %3, align 8, !tbaa !14
  %41 = getelementptr inbounds nuw %struct.AVFormatContext, ptr %40, i32 0, i32 4
  %42 = load ptr, ptr %41, align 8, !tbaa !16
  %43 = call i32 @avio_rl32(ptr noundef %42)
  store i32 %43, ptr %8, align 4, !tbaa !31
  %44 = load ptr, ptr %3, align 8, !tbaa !14
  %45 = getelementptr inbounds nuw %struct.AVFormatContext, ptr %44, i32 0, i32 4
  %46 = load ptr, ptr %45, align 8, !tbaa !16
  %47 = call i32 @avio_rl32(ptr noundef %46)
  store i32 %47, ptr %6, align 4, !tbaa !31
  %48 = load ptr, ptr %3, align 8, !tbaa !14
  %49 = getelementptr inbounds nuw %struct.AVFormatContext, ptr %48, i32 0, i32 4
  %50 = load ptr, ptr %49, align 8, !tbaa !16
  %51 = call i64 @avio_tell(ptr noundef %50)
  %52 = load i32, ptr %6, align 4, !tbaa !31
  %53 = zext i32 %52 to i64
  %54 = add nsw i64 %51, %53
  store i64 %54, ptr %5, align 8, !tbaa !32
  %55 = load i32, ptr %8, align 4, !tbaa !31
  switch i32 %55, label %174 [
    i32 1835413552, label %56
    i32 1835413808, label %110
    i32 0, label %169
  ]

56:                                               ; preds = %39
  %57 = load ptr, ptr %3, align 8, !tbaa !14
  %58 = call ptr @avformat_new_stream(ptr noundef %57, ptr noundef null)
  store ptr %58, ptr %4, align 8, !tbaa !33
  %59 = load ptr, ptr %4, align 8, !tbaa !33
  %60 = icmp ne ptr %59, null
  br i1 %60, label %62, label %61

61:                                               ; preds = %56
  store i32 -12, ptr %2, align 4
  store i32 1, ptr %9, align 4
  br label %184

62:                                               ; preds = %56
  %63 = load ptr, ptr %4, align 8, !tbaa !33
  %64 = getelementptr inbounds nuw %struct.AVStream, ptr %63, i32 0, i32 3
  %65 = load ptr, ptr %64, align 8, !tbaa !35
  %66 = getelementptr inbounds nuw %struct.AVCodecParameters, ptr %65, i32 0, i32 0
  store i32 0, ptr %66, align 8, !tbaa !42
  %67 = load ptr, ptr %3, align 8, !tbaa !14
  %68 = getelementptr inbounds nuw %struct.AVFormatContext, ptr %67, i32 0, i32 4
  %69 = load ptr, ptr %68, align 8, !tbaa !16
  %70 = call i64 @avio_skip(ptr noundef %69, i64 noundef 4)
  %71 = load ptr, ptr %3, align 8, !tbaa !14
  %72 = getelementptr inbounds nuw %struct.AVFormatContext, ptr %71, i32 0, i32 4
  %73 = load ptr, ptr %72, align 8, !tbaa !16
  %74 = call i32 @avio_rl32(ptr noundef %73)
  %75 = load ptr, ptr %4, align 8, !tbaa !33
  %76 = getelementptr inbounds nuw %struct.AVStream, ptr %75, i32 0, i32 3
  %77 = load ptr, ptr %76, align 8, !tbaa !35
  %78 = getelementptr inbounds nuw %struct.AVCodecParameters, ptr %77, i32 0, i32 13
  store i32 %74, ptr %78, align 8, !tbaa !45
  %79 = load ptr, ptr %3, align 8, !tbaa !14
  %80 = getelementptr inbounds nuw %struct.AVFormatContext, ptr %79, i32 0, i32 4
  %81 = load ptr, ptr %80, align 8, !tbaa !16
  %82 = call i32 @avio_rl32(ptr noundef %81)
  %83 = load ptr, ptr %4, align 8, !tbaa !33
  %84 = getelementptr inbounds nuw %struct.AVStream, ptr %83, i32 0, i32 3
  %85 = load ptr, ptr %84, align 8, !tbaa !35
  %86 = getelementptr inbounds nuw %struct.AVCodecParameters, ptr %85, i32 0, i32 14
  store i32 %82, ptr %86, align 4, !tbaa !46
  %87 = load ptr, ptr %3, align 8, !tbaa !14
  %88 = getelementptr inbounds nuw %struct.AVFormatContext, ptr %87, i32 0, i32 4
  %89 = load ptr, ptr %88, align 8, !tbaa !16
  %90 = call i64 @avio_skip(ptr noundef %89, i64 noundef 4)
  %91 = load ptr, ptr %3, align 8, !tbaa !14
  %92 = getelementptr inbounds nuw %struct.AVFormatContext, ptr %91, i32 0, i32 4
  %93 = load ptr, ptr %92, align 8, !tbaa !16
  %94 = call i32 @avio_rl32(ptr noundef %93)
  %95 = load ptr, ptr %4, align 8, !tbaa !33
  %96 = getelementptr inbounds nuw %struct.AVStream, ptr %95, i32 0, i32 3
  %97 = load ptr, ptr %96, align 8, !tbaa !35
  %98 = getelementptr inbounds nuw %struct.AVCodecParameters, ptr %97, i32 0, i32 2
  store i32 %94, ptr %98, align 8, !tbaa !47
  %99 = load ptr, ptr %4, align 8, !tbaa !33
  %100 = getelementptr inbounds nuw %struct.AVStream, ptr %99, i32 0, i32 3
  %101 = load ptr, ptr %100, align 8, !tbaa !35
  %102 = getelementptr inbounds nuw %struct.AVCodecParameters, ptr %101, i32 0, i32 2
  %103 = load i32, ptr %102, align 8, !tbaa !47
  %104 = call i32 @ff_codec_get_id(ptr noundef @ff_codec_bmp_tags, i32 noundef %103)
  %105 = load ptr, ptr %4, align 8, !tbaa !33
  %106 = getelementptr inbounds nuw %struct.AVStream, ptr %105, i32 0, i32 3
  %107 = load ptr, ptr %106, align 8, !tbaa !35
  %108 = getelementptr inbounds nuw %struct.AVCodecParameters, ptr %107, i32 0, i32 1
  store i32 %104, ptr %108, align 4, !tbaa !48
  %109 = load ptr, ptr %4, align 8, !tbaa !33
  call void @avpriv_set_pts_info(ptr noundef %109, i32 noundef 32, i32 noundef 1, i32 noundef 1000)
  br label %177

110:                                              ; preds = %39
  %111 = load ptr, ptr %3, align 8, !tbaa !14
  %112 = call ptr @avformat_new_stream(ptr noundef %111, ptr noundef null)
  store ptr %112, ptr %4, align 8, !tbaa !33
  %113 = load ptr, ptr %4, align 8, !tbaa !33
  %114 = icmp ne ptr %113, null
  br i1 %114, label %116, label %115

115:                                              ; preds = %110
  store i32 -12, ptr %2, align 4
  store i32 1, ptr %9, align 4
  br label %184

116:                                              ; preds = %110
  %117 = load ptr, ptr %4, align 8, !tbaa !33
  %118 = getelementptr inbounds nuw %struct.AVStream, ptr %117, i32 0, i32 3
  %119 = load ptr, ptr %118, align 8, !tbaa !35
  %120 = getelementptr inbounds nuw %struct.AVCodecParameters, ptr %119, i32 0, i32 0
  store i32 1, ptr %120, align 8, !tbaa !42
  %121 = load ptr, ptr %3, align 8, !tbaa !14
  %122 = getelementptr inbounds nuw %struct.AVFormatContext, ptr %121, i32 0, i32 4
  %123 = load ptr, ptr %122, align 8, !tbaa !16
  %124 = call i32 @avio_rl16(ptr noundef %123)
  %125 = load ptr, ptr %4, align 8, !tbaa !33
  %126 = getelementptr inbounds nuw %struct.AVStream, ptr %125, i32 0, i32 3
  %127 = load ptr, ptr %126, align 8, !tbaa !35
  %128 = getelementptr inbounds nuw %struct.AVCodecParameters, ptr %127, i32 0, i32 2
  store i32 %124, ptr %128, align 8, !tbaa !47
  %129 = load ptr, ptr %3, align 8, !tbaa !14
  %130 = getelementptr inbounds nuw %struct.AVFormatContext, ptr %129, i32 0, i32 4
  %131 = load ptr, ptr %130, align 8, !tbaa !16
  %132 = call i32 @avio_rl16(ptr noundef %131)
  %133 = load ptr, ptr %4, align 8, !tbaa !33
  %134 = getelementptr inbounds nuw %struct.AVStream, ptr %133, i32 0, i32 3
  %135 = load ptr, ptr %134, align 8, !tbaa !35
  %136 = getelementptr inbounds nuw %struct.AVCodecParameters, ptr %135, i32 0, i32 24
  %137 = getelementptr inbounds nuw %struct.AVChannelLayout, ptr %136, i32 0, i32 1
  store i32 %132, ptr %137, align 4, !tbaa !49
  %138 = load ptr, ptr %3, align 8, !tbaa !14
  %139 = getelementptr inbounds nuw %struct.AVFormatContext, ptr %138, i32 0, i32 4
  %140 = load ptr, ptr %139, align 8, !tbaa !16
  %141 = call i32 @avio_rl16(ptr noundef %140)
  %142 = load ptr, ptr %4, align 8, !tbaa !33
  %143 = getelementptr inbounds nuw %struct.AVStream, ptr %142, i32 0, i32 3
  %144 = load ptr, ptr %143, align 8, !tbaa !35
  %145 = getelementptr inbounds nuw %struct.AVCodecParameters, ptr %144, i32 0, i32 25
  store i32 %141, ptr %145, align 8, !tbaa !50
  %146 = load ptr, ptr %3, align 8, !tbaa !14
  %147 = getelementptr inbounds nuw %struct.AVFormatContext, ptr %146, i32 0, i32 4
  %148 = load ptr, ptr %147, align 8, !tbaa !16
  %149 = call i64 @avio_skip(ptr noundef %148, i64 noundef 8)
  %150 = load ptr, ptr %3, align 8, !tbaa !14
  %151 = getelementptr inbounds nuw %struct.AVFormatContext, ptr %150, i32 0, i32 4
  %152 = load ptr, ptr %151, align 8, !tbaa !16
  %153 = call i32 @avio_r8(ptr noundef %152)
  %154 = load ptr, ptr %4, align 8, !tbaa !33
  %155 = getelementptr inbounds nuw %struct.AVStream, ptr %154, i32 0, i32 3
  %156 = load ptr, ptr %155, align 8, !tbaa !35
  %157 = getelementptr inbounds nuw %struct.AVCodecParameters, ptr %156, i32 0, i32 9
  store i32 %153, ptr %157, align 8, !tbaa !51
  %158 = load ptr, ptr %4, align 8, !tbaa !33
  %159 = getelementptr inbounds nuw %struct.AVStream, ptr %158, i32 0, i32 3
  %160 = load ptr, ptr %159, align 8, !tbaa !35
  %161 = getelementptr inbounds nuw %struct.AVCodecParameters, ptr %160, i32 0, i32 2
  %162 = load i32, ptr %161, align 8, !tbaa !47
  %163 = call i32 @ff_codec_get_id(ptr noundef @ff_codec_wav_tags, i32 noundef %162)
  %164 = load ptr, ptr %4, align 8, !tbaa !33
  %165 = getelementptr inbounds nuw %struct.AVStream, ptr %164, i32 0, i32 3
  %166 = load ptr, ptr %165, align 8, !tbaa !35
  %167 = getelementptr inbounds nuw %struct.AVCodecParameters, ptr %166, i32 0, i32 1
  store i32 %163, ptr %167, align 4, !tbaa !48
  %168 = load ptr, ptr %4, align 8, !tbaa !33
  call void @avpriv_set_pts_info(ptr noundef %168, i32 noundef 32, i32 noundef 1, i32 noundef 1000)
  br label %177

169:                                              ; preds = %39
  %170 = load ptr, ptr %3, align 8, !tbaa !14
  %171 = getelementptr inbounds nuw %struct.AVFormatContext, ptr %170, i32 0, i32 4
  %172 = load ptr, ptr %171, align 8, !tbaa !16
  %173 = call i64 @avio_seek(ptr noundef %172, i64 noundef 2056, i32 noundef 0)
  store i32 0, ptr %2, align 4
  store i32 1, ptr %9, align 4
  br label %184

174:                                              ; preds = %39
  %175 = load ptr, ptr %3, align 8, !tbaa !14
  %176 = load i32, ptr %8, align 4, !tbaa !31
  call void (ptr, ptr, ...) @avpriv_request_sample(ptr noundef %175, ptr noundef @.str.3, i32 noundef %176)
  store i32 -1163346256, ptr %2, align 4
  store i32 1, ptr %9, align 4
  br label %184

177:                                              ; preds = %116, %62
  %178 = load ptr, ptr %3, align 8, !tbaa !14
  %179 = getelementptr inbounds nuw %struct.AVFormatContext, ptr %178, i32 0, i32 4
  %180 = load ptr, ptr %179, align 8, !tbaa !16
  %181 = load i64, ptr %5, align 8, !tbaa !32
  %182 = call i64 @avio_seek(ptr noundef %180, i64 noundef %181, i32 noundef 0)
  br label %32, !llvm.loop !52

183:                                              ; preds = %32
  store i32 -541478725, ptr %2, align 4
  store i32 1, ptr %9, align 4
  br label %184

184:                                              ; preds = %183, %174, %169, %115, %61, %24, %20
  call void @llvm.lifetime.end.p0(i64 4, ptr %8) #4
  call void @llvm.lifetime.end.p0(i64 4, ptr %7) #4
  call void @llvm.lifetime.end.p0(i64 4, ptr %6) #4
  call void @llvm.lifetime.end.p0(i64 8, ptr %5) #4
  call void @llvm.lifetime.end.p0(i64 8, ptr %4) #4
  %185 = load i32, ptr %2, align 4
  ret i32 %185
}