; Function Attrs: nounwind uwtable
define internal range(i32 -1163346256, 1) i32 @lvf_read_header(ptr noundef %0) #1 {
  %2 = getelementptr inbounds nuw i8, ptr %0, i64 32
  %3 = load ptr, ptr %2, align 8, !tbaa !12
  %4 = tail call i64 @avio_skip(ptr noundef %3, i64 noundef 16) #3
  %5 = load ptr, ptr %2, align 8, !tbaa !12
  %6 = tail call i32 @avio_rl32(ptr noundef %5) #3
  %.not = icmp eq i32 %6, 0
  br i1 %.not, label %.loopexit, label %7

7:                                                ; preds = %1
  %8 = icmp ugt i32 %6, 2
  br i1 %8, label %9, label %10

9:                                                ; preds = %7
  tail call void (ptr, ptr, ...) @avpriv_request_sample(ptr noundef nonnull %0, ptr noundef nonnull @.str.2, i32 noundef %6) #3
  br label %.loopexit

10:                                               ; preds = %7
  %11 = load ptr, ptr %2, align 8, !tbaa !12
  %12 = tail call i64 @avio_skip(ptr noundef %11, i64 noundef 1012) #3
  %13 = load ptr, ptr %2, align 8, !tbaa !12
  %14 = tail call i32 @avio_feof(ptr noundef %13) #3
  %.not5054 = icmp eq i32 %14, 0
  br i1 %.not5054, label %.lr.ph, label %.loopexit

.lr.ph:                                           ; preds = %10, %75
  %15 = load ptr, ptr %2, align 8, !tbaa !12
  %16 = tail call i32 @avio_rl32(ptr noundef %15) #3
  %17 = load ptr, ptr %2, align 8, !tbaa !12
  %18 = tail call i32 @avio_rl32(ptr noundef %17) #3
  %19 = load ptr, ptr %2, align 8, !tbaa !12
  %20 = tail call i64 @avio_seek(ptr noundef %19, i64 noundef 0, i32 noundef 1) #3
  %21 = zext i32 %18 to i64
  %22 = add nsw i64 %20, %21
  switch i32 %16, label %74 [
    i32 1835413552, label %23
    i32 1835413808, label %45
    i32 0, label %71
  ]

23:                                               ; preds = %.lr.ph
  %24 = tail call ptr @avformat_new_stream(ptr noundef nonnull %0, ptr noundef null) #3
  %.not52 = icmp eq ptr %24, null
  br i1 %.not52, label %.loopexit, label %25

25:                                               ; preds = %23
  %26 = getelementptr inbounds nuw i8, ptr %24, i64 16
  %27 = load ptr, ptr %26, align 8, !tbaa !27
  store i32 0, ptr %27, align 8, !tbaa !34
  %28 = load ptr, ptr %2, align 8, !tbaa !12
  %29 = tail call i64 @avio_skip(ptr noundef %28, i64 noundef 4) #3
  %30 = load ptr, ptr %2, align 8, !tbaa !12
  %31 = tail call i32 @avio_rl32(ptr noundef %30) #3
  %32 = load ptr, ptr %26, align 8, !tbaa !27
  %33 = getelementptr inbounds nuw i8, ptr %32, i64 72
  store i32 %31, ptr %33, align 8, !tbaa !37
  %34 = load ptr, ptr %2, align 8, !tbaa !12
  %35 = tail call i32 @avio_rl32(ptr noundef %34) #3
  %36 = load ptr, ptr %26, align 8, !tbaa !27
  %37 = getelementptr inbounds nuw i8, ptr %36, i64 76
  store i32 %35, ptr %37, align 4, !tbaa !38
  %38 = load ptr, ptr %2, align 8, !tbaa !12
  %39 = tail call i64 @avio_skip(ptr noundef %38, i64 noundef 4) #3
  %40 = load ptr, ptr %2, align 8, !tbaa !12
  %41 = tail call i32 @avio_rl32(ptr noundef %40) #3
  %42 = load ptr, ptr %26, align 8, !tbaa !27
  %43 = getelementptr inbounds nuw i8, ptr %42, i64 8
  store i32 %41, ptr %43, align 8, !tbaa !39
  %44 = tail call i32 @ff_codec_get_id(ptr noundef nonnull @ff_codec_bmp_tags, i32 noundef %41) #3
  br label %75

45:                                               ; preds = %.lr.ph
  %46 = tail call ptr @avformat_new_stream(ptr noundef nonnull %0, ptr noundef null) #3
  %.not51 = icmp eq ptr %46, null
  br i1 %.not51, label %.loopexit, label %47

47:                                               ; preds = %45
  %48 = getelementptr inbounds nuw i8, ptr %46, i64 16
  %49 = load ptr, ptr %48, align 8, !tbaa !27
  store i32 1, ptr %49, align 8, !tbaa !34
  %50 = load ptr, ptr %2, align 8, !tbaa !12
  %51 = tail call i32 @avio_rl16(ptr noundef %50) #3
  %52 = load ptr, ptr %48, align 8, !tbaa !27
  %53 = getelementptr inbounds nuw i8, ptr %52, i64 8
  store i32 %51, ptr %53, align 8, !tbaa !39
  %54 = load ptr, ptr %2, align 8, !tbaa !12
  %55 = tail call i32 @avio_rl16(ptr noundef %54) #3
  %56 = load ptr, ptr %48, align 8, !tbaa !27
  %57 = getelementptr inbounds nuw i8, ptr %56, i64 132
  store i32 %55, ptr %57, align 4, !tbaa !40
  %58 = load ptr, ptr %2, align 8, !tbaa !12
  %59 = tail call i32 @avio_rl16(ptr noundef %58) #3
  %60 = load ptr, ptr %48, align 8, !tbaa !27
  %61 = getelementptr inbounds nuw i8, ptr %60, i64 152
  store i32 %59, ptr %61, align 8, !tbaa !41
  %62 = load ptr, ptr %2, align 8, !tbaa !12
  %63 = tail call i64 @avio_skip(ptr noundef %62, i64 noundef 8) #3
  %64 = load ptr, ptr %2, align 8, !tbaa !12
  %65 = tail call i32 @avio_r8(ptr noundef %64) #3
  %66 = load ptr, ptr %48, align 8, !tbaa !27
  %67 = getelementptr inbounds nuw i8, ptr %66, i64 56
  store i32 %65, ptr %67, align 8, !tbaa !42
  %68 = getelementptr inbounds nuw i8, ptr %66, i64 8
  %69 = load i32, ptr %68, align 8, !tbaa !39
  %70 = tail call i32 @ff_codec_get_id(ptr noundef nonnull @ff_codec_wav_tags, i32 noundef %69) #3
  br label %75

71:                                               ; preds = %.lr.ph
  %72 = load ptr, ptr %2, align 8, !tbaa !12
  %73 = tail call i64 @avio_seek(ptr noundef %72, i64 noundef 2056, i32 noundef 0) #3
  br label %.loopexit

74:                                               ; preds = %.lr.ph
  tail call void (ptr, ptr, ...) @avpriv_request_sample(ptr noundef nonnull %0, ptr noundef nonnull @.str.3, i32 noundef %16) #3
  br label %.loopexit

75:                                               ; preds = %47, %25
  %.sink65.in = phi ptr [ %48, %47 ], [ %26, %25 ]
  %.sink63 = phi i32 [ %70, %47 ], [ %44, %25 ]
  %.sink = phi ptr [ %46, %47 ], [ %24, %25 ]
  %.sink65 = load ptr, ptr %.sink65.in, align 8, !tbaa !27
  %76 = getelementptr inbounds nuw i8, ptr %.sink65, i64 4
  store i32 %.sink63, ptr %76, align 4, !tbaa !43
  tail call void @avpriv_set_pts_info(ptr noundef nonnull %.sink, i32 noundef 32, i32 noundef 1, i32 noundef 1000) #3
  %77 = load ptr, ptr %2, align 8, !tbaa !12
  %78 = tail call i64 @avio_seek(ptr noundef %77, i64 noundef %22, i32 noundef 0) #3
  %79 = load ptr, ptr %2, align 8, !tbaa !12
  %80 = tail call i32 @avio_feof(ptr noundef %79) #3
  %.not50 = icmp eq i32 %80, 0
  br i1 %.not50, label %.lr.ph, label %.loopexit, !llvm.loop !44

.loopexit:                                        ; preds = %23, %45, %75, %10, %1, %74, %71, %9
  %.0 = phi i32 [ -1163346256, %9 ], [ -1163346256, %74 ], [ 0, %71 ], [ -1094995529, %1 ], [ -541478725, %10 ], [ -12, %23 ], [ -12, %45 ], [ -541478725, %75 ]
  ret i32 %.0
}